target datalayout = "e-m:e-p270:32:32-p271:32:32-p272:64:64-i64:64-i128:128-f80:128-n8:16:32:64-S128"
target triple = "x86_64-pc-linux-gnu"

%struct.ssl_connection_st = type { %struct.ssl_st, ptr, i32, ptr, ptr, ptr, i32, ptr, i32, i32, i32, i32, %struct.OSSL_TIME, %struct.OSSL_TIME, %struct.ossl_statem_st, i32, ptr, ptr, i64, i64, i64, %struct.ossl_quic_tls_callbacks_st, ptr, ptr, %struct.anon, ptr, ptr, ptr, i32, ptr, %struct.ssl_dane_st, ptr, ptr, ptr, ptr, i32, [64 x i8], [64 x i8], [64 x i8], [64 x i8], [64 x i8], [64 x i8], [64 x i8], [64 x i8], [64 x i8], [64 x i8], [64 x i8], [64 x i8], ptr, [64 x i8], i64, i32, i64, [32 x i8], ptr, ptr, ptr, i64, ptr, [32 x i8], i64, i32, ptr, ptr, i32, i32, ptr, ptr, ptr, ptr, ptr, i64, ptr, ptr, i64, i32, i32, i32, i64, i32, i32, i64, i64, i64, %struct.anon.1, ptr, i32, ptr, ptr, ptr, i32, ptr, ptr, ptr, i32, i32, i32, i32, ptr, i64, i32, ptr, %struct.srp_ctx_st, ptr, %struct.record_layer_st, ptr, ptr, ptr, ptr, i64, i32, i32, i32, i64, i64, i64, ptr, ptr, ptr, ptr, ptr, i64, ptr, i64, ptr, i64 }
%struct.ssl_st = type { i32, ptr, ptr, ptr, %struct.CRYPTO_REF_COUNT, ptr, %struct.crypto_ex_data_st }
%struct.CRYPTO_REF_COUNT = type { i32 }
%struct.crypto_ex_data_st = type { ptr, ptr }
%struct.OSSL_TIME = type { i64 }
%struct.ossl_statem_st = type { i32, i32, i32, i32, i32, i32, i32, i32, i32, i32, i32, i32, i32, ptr, ptr, ptr, i8 }
%struct.ossl_quic_tls_callbacks_st = type { ptr, ptr, ptr, ptr, ptr, ptr }
%struct.anon = type { i64, [32 x i8], [32 x i8], ptr, ptr, i32, i32, i32, i32, [2 x i8], i32, i32, i32, i32, %struct.anon.0, [64 x i8], i64, [64 x i8], i64, i32, i32, ptr, i64, ptr, i64, i32, i8, i8, i16, ptr, i16 }
%struct.anon.0 = type { [128 x i8], i64, [128 x i8], i64, i64, i32, ptr, ptr, [4 x ptr], [4 x i16], i64, i32, ptr, i64, ptr, i64, ptr, ptr, ptr, i32, i64, ptr, i32, ptr, i64, ptr, i64, ptr, i64, ptr, ptr, ptr, ptr, i64, i64, ptr, ptr, i32, i32, i32, i32 }
%struct.ssl_dane_st = type { ptr, ptr, ptr, ptr, ptr, i32, i32, i32, i64 }
%struct.anon.1 = type { [29 x i8], ptr, ptr, ptr, i32, ptr, i16, i32, %struct.anon.2, i32, i32, i64, ptr, i64, ptr, i64, ptr, i64, ptr, i64, ptr, i64, ptr, ptr, ptr, ptr, ptr, ptr, ptr, i64, ptr, i64, i32, i32, i32, i32, ptr, i64, i32, i8, i32, [4 x i32], i32, i8, i8, i8, i8 }
%struct.anon.2 = type { ptr, ptr, ptr, i64 }
%struct.srp_ctx_st = type { ptr, ptr, ptr, ptr, ptr, ptr, ptr, ptr, ptr, ptr, ptr, ptr, ptr, ptr, i32, i64 }
%struct.record_layer_st = type { ptr, ptr, ptr, ptr, ptr, ptr, ptr, ptr, i64, i32, i64, [4 x i8], i64, i64, i8, ptr, i32, ptr, ptr, ptr, i64, i64, i64, i64, [32 x %struct.tls_record_st] }
%struct.tls_record_st = type { ptr, i32, i8, ptr, ptr, i64, i64, i16, [8 x i8] }

@.str.3 = private unnamed_addr constant [8 x i8] c"TLSv1.3\00", align 1
@.str.4 = private unnamed_addr constant [8 x i8] c"TLSv1.2\00", align 1
@.str.5 = private unnamed_addr constant [8 x i8] c"TLSv1.1\00", align 1
@.str.6 = private unnamed_addr constant [6 x i8] c"TLSv1\00", align 1
@.str.7 = private unnamed_addr constant [6 x i8] c"SSLv3\00", align 1
@.str.8 = private unnamed_addr constant [9 x i8] c"DTLSv0.9\00", align 1
@.str.9 = private unnamed_addr constant [7 x i8] c"DTLSv1\00", align 1
@.str.10 = private unnamed_addr constant [9 x i8] c"DTLSv1.2\00", align 1
@.str.11 = private unnamed_addr constant [8 x i8] c"unknown\00", align 1
@.str.12 = private unnamed_addr constant [7 x i8] c"QUICv1\00", align 1

; Function Attrs: nounwind uwtable
define ptr @ssl_protocol_to_string(i32 noundef %0) #0 {
  %2 = alloca ptr, align 8
  %3 = alloca i32, align 4
  store i32 %0, ptr %3, align 4, !tbaa !14
  %4 = load i32, ptr %3, align 4, !tbaa !14
  switch i32 %4, label %13 [
    i32 772, label %5
    i32 771, label %6
    i32 770, label %7
    i32 769, label %8
    i32 768, label %9
    i32 256, label %10
    i32 65279, label %11
    i32 65277, label %12
  ]

5:                                                ; preds = %1
  store ptr @.str.3, ptr %2, align 8
  br label %14

6:                                                ; preds = %1
  store ptr @.str.4, ptr %2, align 8
  br label %14

7:                                                ; preds = %1
  store ptr @.str.5, ptr %2, align 8
  br label %14

8:                                                ; preds = %1
  store ptr @.str.6, ptr %2, align 8
  br label %14

9:                                                ; preds = %1
  store ptr @.str.7, ptr %2, align 8
  br label %14

10:                                               ; preds = %1
  store ptr @.str.8, ptr %2, align 8
  br label %14

11:                                               ; preds = %1
  store ptr @.str.9, ptr %2, align 8
  br label %14

12:                                               ; preds = %1
  store ptr @.str.10, ptr %2, align 8
  br label %14

13:                                               ; preds = %1
  store ptr @.str.11, ptr %2, align 8
  br label %14

14:                                               ; preds = %13, %12, %11, %10, %9, %8, %7, %6, %5
  %15 = load ptr, ptr %2, align 8
  ret ptr %15
}

; Function Attrs: nounwind uwtable
define ptr @SSL_get_version(ptr noundef %0) #0 {
  %2 = alloca ptr, align 8
  %3 = alloca ptr, align 8
  %4 = alloca ptr, align 8
  %5 = alloca i32, align 4
  store ptr %0, ptr %3, align 8, !tbaa !16
  call void @llvm.lifetime.start.p0(i64 8, ptr %4) #9
  %6 = load ptr, ptr %3, align 8, !tbaa !16
  %7 = icmp eq ptr %6, null
  br i1 %7, label %8, label %9

8:                                                ; preds = %1
  br label %30

9:                                                ; preds = %1
  %10 = load ptr, ptr %3, align 8, !tbaa !16
  %11 = getelementptr inbounds nuw %struct.ssl_st, ptr %10, i32 0, i32 0
  %12 = load i32, ptr %11, align 8, !tbaa !29
  %13 = icmp eq i32 %12, 0
  br i1 %13, label %14, label %16

14:                                               ; preds = %9
  %15 = load ptr, ptr %3, align 8, !tbaa !16
  br label %28

16:                                               ; preds = %9
  %17 = load ptr, ptr %3, align 8, !tbaa !16
  %18 = getelementptr inbounds nuw %struct.ssl_st, ptr %17, i32 0, i32 0
  %19 = load i32, ptr %18, align 8, !tbaa !29
  %20 = and i32 %19, 128
  %21 = icmp ne i32 %20, 0
  br i1 %21, label %22, label %25

22:                                               ; preds = %16
  %23 = load ptr, ptr %3, align 8, !tbaa !16
  %24 = call ptr @ossl_quic_obj_get0_handshake_layer(ptr noundef %23)
  br label %26

25:                                               ; preds = %16
  br label %26

26:                                               ; preds = %25, %22
  %27 = phi ptr [ %24, %22 ], [ null, %25 ]
  br label %28

28:                                               ; preds = %26, %14
  %29 = phi ptr [ %15, %14 ], [ %27, %26 ]
  br label %30

30:                                               ; preds = %28, %8
  %31 = phi ptr [ null, %8 ], [ %29, %28 ]
  store ptr %31, ptr %4, align 8, !tbaa !3
  %32 = load ptr, ptr %3, align 8, !tbaa !16
  %33 = getelementptr inbounds nuw %struct.ssl_st, ptr %32, i32 0, i32 0
  %34 = load i32, ptr %33, align 8, !tbaa !29
  %35 = icmp eq i32 %34, 128
  br i1 %35, label %41, label %36

36:                                               ; preds = %30
  %37 = load ptr, ptr %3, align 8, !tbaa !16
  %38 = getelementptr inbounds nuw %struct.ssl_st, ptr %37, i32 0, i32 0
  %39 = load i32, ptr %38, align 8, !tbaa !29
  %40 = icmp eq i32 %39, 129
  br i1 %40, label %41, label %42

41:                                               ; preds = %36, %30
  store ptr @.str.12, ptr %2, align 8
  store i32 1, ptr %5, align 4
  br label %51

42:                                               ; preds = %36
  %43 = load ptr, ptr %4, align 8, !tbaa !3
  %44 = icmp eq ptr %43, null
  br i1 %44, label %45, label %46

45:                                               ; preds = %42
  store ptr null, ptr %2, align 8
  store i32 1, ptr %5, align 4
  br label %51

46:                                               ; preds = %42
  %47 = load ptr, ptr %4, align 8, !tbaa !3
  %48 = getelementptr inbounds nuw %struct.ssl_connection_st, ptr %47, i32 0, i32 2
  %49 = load i32, ptr %48, align 8, !tbaa !90
  %50 = call ptr @ssl_protocol_to_string(i32 noundef %49)
  store ptr %50, ptr %2, align 8
  store i32 1, ptr %5, align 4
  br label %51

51:                                               ; preds = %46, %45, %41
  call void @llvm.lifetime.end.p0(i64 8, ptr %4) #9
  %52 = load ptr, ptr %2, align 8
  ret ptr %52
}