; Function Attrs: nounwind uwtable
define noundef ptr @SSL_get_version(ptr noundef %0) local_unnamed_addr #0 {
  %.pre14 = load i32, ptr %0, align 8, !tbaa !19
  %2 = icmp eq i32 %.pre14, 0
  br i1 %2, label %.thread16, label %3

3:                                                ; preds = %1
  %4 = and i32 %.pre14, 128
  %.not = icmp eq i32 %4, 0
  br i1 %.not, label %7, label %5

5:                                                ; preds = %3
  %6 = tail call ptr @ossl_quic_obj_get0_handshake_layer(ptr noundef nonnull %0) #20
  %.pre = load i32, ptr %0, align 8, !tbaa !19
  br label %7

7:                                                ; preds = %3, %5
  %8 = phi i32 [ %.pre, %5 ], [ %.pre14, %3 ]
  %9 = phi ptr [ %6, %5 ], [ null, %3 ]
  %10 = and i32 %8, -2
  %switch = icmp eq i32 %10, 128
  br i1 %switch, label %ssl_protocol_to_string.exit, label %11

11:                                               ; preds = %7
  %12 = icmp eq ptr %9, null
  br i1 %12, label %ssl_protocol_to_string.exit, label %.thread16

.thread16:                                        ; preds = %1, %11
  %13 = phi ptr [ %9, %11 ], [ %0, %1 ]
  %14 = getelementptr inbounds nuw i8, ptr %13, i64 72
  %15 = load i32, ptr %14, align 8, !tbaa !83
  switch i32 %15, label %23 [
    i32 772, label %ssl_protocol_to_string.exit
    i32 771, label %16
    i32 770, label %17
    i32 769, label %18
    i32 768, label %19
    i32 256, label %20
    i32 65279, label %21
    i32 65277, label %22
  ]

16:                                               ; preds = %.thread16
  br label %ssl_protocol_to_string.exit

17:                                               ; preds = %.thread16
  br label %ssl_protocol_to_string.exit

18:                                               ; preds = %.thread16
  br label %ssl_protocol_to_string.exit

19:                                               ; preds = %.thread16
  br label %ssl_protocol_to_string.exit

20:                                               ; preds = %.thread16
  br label %ssl_protocol_to_string.exit

21:                                               ; preds = %.thread16
  br label %ssl_protocol_to_string.exit

22:                                               ; preds = %.thread16
  br label %ssl_protocol_to_string.exit

23:                                               ; preds = %.thread16
  br label %ssl_protocol_to_string.exit

ssl_protocol_to_string.exit:                      ; preds = %23, %22, %21, %20, %19, %18, %17, %16, %.thread16, %7, %11
  %.0 = phi ptr [ @.str.12, %7 ], [ null, %11 ], [ @.str.11, %23 ], [ @.str.10, %22 ], [ @.str.9, %21 ], [ @.str.8, %20 ], [ @.str.7, %19 ], [ @.str.6, %18 ], [ @.str.5, %17 ], [ @.str.4, %16 ], [ @.str.3, %.thread16 ]
  ret ptr %.0
}